target datalayout = "e-m:e-p270:32:32-p271:32:32-p272:64:64-i64:64-i128:128-f80:128-n8:16:32:64-S128"
target triple = "x86_64-unknown-linux-gnu"

%"class.QuantLib::VegaBumpCluster" = type { i64, i64, i64, i64, i64, i64 }
%"class.boost::detail::shared_count" = type { ptr }
%"class.boost::shared_ptr.10" = type { ptr, %"class.boost::detail::shared_count" }
%"struct.std::_Vector_base.25" = type { %"struct.std::_Vector_base<unsigned long, std::allocator<unsigned long>>::_Vector_impl" }
%"struct.std::_Vector_base<unsigned long, std::allocator<unsigned long>>::_Vector_impl" = type { %"struct.std::_Vector_base<unsigned long, std::allocator<unsigned long>>::_Vector_impl_data" }
%"struct.std::_Vector_base<unsigned long, std::allocator<unsigned long>>::_Vector_impl_data" = type { ptr, ptr, ptr }

@.str.8 = private unnamed_addr constant [8 x i8] c"px != 0\00", align 1
@.str.9 = private unnamed_addr constant [102 x i8] c"generated/home/dtcxzyw/WorkSpace/SDK/vcpkg/installed/x64-linux/include/boost/smart_ptr/shared_ptr.hpp\00", align 1
@__PRETTY_FUNCTION__._ZNK5boost10shared_ptrIN8QuantLib11MarketModelEEptEv = private unnamed_addr constant [139 x i8] c"typename boost::detail::sp_member_access<T>::type boost::shared_ptr<QuantLib::MarketModel>::operator->() const [T = QuantLib::MarketModel]\00", align 1

; Function Attrs: mustprogress nounwind uwtable
define linkonce_odr noundef nonnull align 8 dereferenceable(8) ptr @_ZNKSt6vectorImSaImEEixEm(ptr noundef nonnull align 8 dereferenceable(24) %this, i64 noundef %__n) #4 comdat align 2 {
entry:
  %this.addr = alloca ptr, align 8
  %__n.addr = alloca i64, align 8
  store ptr %this, ptr %this.addr, align 8, !tbaa !3
  store i64 %__n, ptr %__n.addr, align 8, !tbaa !7
  %this1 = load ptr, ptr %this.addr, align 8
  %_M_impl = getelementptr inbounds nuw %"struct.std::_Vector_base.25", ptr %this1, i32 0, i32 0
  %_M_start = getelementptr inbounds nuw %"struct.std::_Vector_base<unsigned long, std::allocator<unsigned long>>::_Vector_impl_data", ptr %_M_impl, i32 0, i32 0
  %0 = load ptr, ptr %_M_start, align 8, !tbaa !21
  %1 = load i64, ptr %__n.addr, align 8, !tbaa !7
  %add.ptr = getelementptr inbounds nuw i64, ptr %0, i64 %1
  ret ptr %add.ptr
}

; Function Attrs: mustprogress uwtable
define linkonce_odr noundef ptr @_ZNK5boost10shared_ptrIN8QuantLib11MarketModelEEptEv(ptr noundef nonnull align 8 dereferenceable(16) %this) #2 comdat align 2 {
entry:
  %this.addr = alloca ptr, align 8
  store ptr %this, ptr %this.addr, align 8, !tbaa !3
  %this1 = load ptr, ptr %this.addr, align 8
  %px = getelementptr inbounds nuw %"class.boost::shared_ptr.10", ptr %this1, i32 0, i32 0
  %0 = load ptr, ptr %px, align 8, !tbaa !18
  %cmp = icmp ne ptr %0, null
  %lnot = xor i1 %cmp, true
  %lnot2 = xor i1 %lnot, true
  %conv = zext i1 %lnot2 to i64
  %expval = call i64 @llvm.expect.i64(i64 %conv, i64 1)
  %tobool = icmp ne i64 %expval, 0
  br i1 %tobool, label %cond.true, label %cond.false

cond.true:                                        ; preds = %entry
  br label %cond.end

cond.false:                                       ; preds = %entry
  call void @_ZN5boost16assertion_failedEPKcS1_S1_l(ptr noundef @.str.8, ptr noundef @__PRETTY_FUNCTION__._ZNK5boost10shared_ptrIN8QuantLib11MarketModelEEptEv, ptr noundef @.str.9, i64 noundef 784)
  br label %cond.end

cond.end:                                         ; preds = %cond.false, %cond.true
  %px3 = getelementptr inbounds nuw %"class.boost::shared_ptr.10", ptr %this1, i32 0, i32 0
  %1 = load ptr, ptr %px3, align 8, !tbaa !18
  ret ptr %1
}

; Function Attrs: mustprogress uwtable
define noundef zeroext i1 @_ZNK8QuantLib15VegaBumpCluster12isCompatibleERKN5boost10shared_ptrINS_11MarketModelEEE(ptr noundef nonnull align 8 dereferenceable(48) %this, ptr noundef nonnull align 8 dereferenceable(16) %volStructure) #2 align 2 {
entry:
  %retval = alloca i1, align 1
  %this.addr = alloca ptr, align 8
  %volStructure.addr = alloca ptr, align 8
  %firstAliveRate = alloca i64, align 8
  store ptr %this, ptr %this.addr, align 8, !tbaa !3
  store ptr %volStructure, ptr %volStructure.addr, align 8, !tbaa !3
  %this1 = load ptr, ptr %this.addr, align 8
  %rateEnd_ = getelementptr inbounds nuw %"class.QuantLib::VegaBumpCluster", ptr %this1, i32 0, i32 3
  %0 = load i64, ptr %rateEnd_, align 8, !tbaa !13
  %1 = load ptr, ptr %volStructure.addr, align 8, !tbaa !3
  %call = call noundef ptr @_ZNK5boost10shared_ptrIN8QuantLib11MarketModelEEptEv(ptr noundef nonnull align 8 dereferenceable(16) %1)
  %vtable = load ptr, ptr %call, align 8, !tbaa !16
  %vfn = getelementptr inbounds ptr, ptr %vtable, i64 5
  %2 = load ptr, ptr %vfn, align 8
  %call2 = call noundef i64 %2(ptr noundef nonnull align 8 dereferenceable(56) %call)
  %cmp = icmp ugt i64 %0, %call2
  br i1 %cmp, label %if.then, label %if.end

if.then:                                          ; preds = %entry
  store i1 false, ptr %retval, align 1
  br label %return

if.end:                                           ; preds = %entry
  %stepEnd_ = getelementptr inbounds nuw %"class.QuantLib::VegaBumpCluster", ptr %this1, i32 0, i32 5
  %3 = load i64, ptr %stepEnd_, align 8, !tbaa !15
  %4 = load ptr, ptr %volStructure.addr, align 8, !tbaa !3
  %call3 = call noundef ptr @_ZNK5boost10shared_ptrIN8QuantLib11MarketModelEEptEv(ptr noundef nonnull align 8 dereferenceable(16) %4)
  %vtable4 = load ptr, ptr %call3, align 8, !tbaa !16
  %vfn5 = getelementptr inbounds ptr, ptr %vtable4, i64 7
  %5 = load ptr, ptr %vfn5, align 8
  %call6 = call noundef i64 %5(ptr noundef nonnull align 8 dereferenceable(56) %call3)
  %cmp7 = icmp ugt i64 %3, %call6
  br i1 %cmp7, label %if.then8, label %if.end9

if.then8:                                         ; preds = %if.end
  store i1 false, ptr %retval, align 1
  br label %return

if.end9:                                          ; preds = %if.end
  %factorEnd_ = getelementptr inbounds nuw %"class.QuantLib::VegaBumpCluster", ptr %this1, i32 0, i32 1
  %6 = load i64, ptr %factorEnd_, align 8, !tbaa !11
  %7 = load ptr, ptr %volStructure.addr, align 8, !tbaa !3
  %call10 = call noundef ptr @_ZNK5boost10shared_ptrIN8QuantLib11MarketModelEEptEv(ptr noundef nonnull align 8 dereferenceable(16) %7)
  %vtable11 = load ptr, ptr %call10, align 8, !tbaa !16
  %vfn12 = getelementptr inbounds ptr, ptr %vtable11, i64 6
  %8 = load ptr, ptr %vfn12, align 8
  %call13 = call noundef i64 %8(ptr noundef nonnull align 8 dereferenceable(56) %call10)
  %cmp14 = icmp ugt i64 %6, %call13
  br i1 %cmp14, label %if.then15, label %if.end16

if.then15:                                        ; preds = %if.end9
  store i1 false, ptr %retval, align 1
  br label %return

if.end16:                                         ; preds = %if.end9
  call void @llvm.lifetime.start.p0(i64 8, ptr %firstAliveRate) #14
  %9 = load ptr, ptr %volStructure.addr, align 8, !tbaa !3
  %call17 = call noundef ptr @_ZNK5boost10shared_ptrIN8QuantLib11MarketModelEEptEv(ptr noundef nonnull align 8 dereferenceable(16) %9)
  %vtable18 = load ptr, ptr %call17, align 8, !tbaa !16
  %vfn19 = getelementptr inbounds ptr, ptr %vtable18, i64 4
  %10 = load ptr, ptr %vfn19, align 8
  %call20 = call noundef nonnull align 8 dereferenceable(128) ptr %10(ptr noundef nonnull align 8 dereferenceable(56) %call17)
  %call21 = call noundef nonnull align 8 dereferenceable(24) ptr @_ZNK8QuantLib20EvolutionDescription14firstAliveRateEv(ptr noundef nonnull align 8 dereferenceable(128) %call20)
  %stepEnd_22 = getelementptr inbounds nuw %"class.QuantLib::VegaBumpCluster", ptr %this1, i32 0, i32 5
  %11 = load i64, ptr %stepEnd_22, align 8, !tbaa !15
  %sub = sub i64 %11, 1
  %call23 = call noundef nonnull align 8 dereferenceable(8) ptr @_ZNKSt6vectorImSaImEEixEm(ptr noundef nonnull align 8 dereferenceable(24) %call21, i64 noundef %sub) #14
  %12 = load i64, ptr %call23, align 8, !tbaa !7
  store i64 %12, ptr %firstAliveRate, align 8, !tbaa !7
  %rateBegin_ = getelementptr inbounds nuw %"class.QuantLib::VegaBumpCluster", ptr %this1, i32 0, i32 2
  %13 = load i64, ptr %rateBegin_, align 8, !tbaa !12
  %14 = load i64, ptr %firstAliveRate, align 8, !tbaa !7
  %cmp24 = icmp uge i64 %13, %14
  store i1 %cmp24, ptr %retval, align 1
  call void @llvm.lifetime.end.p0(i64 8, ptr %firstAliveRate) #14
  br label %return

return:                                           ; preds = %if.end16, %if.then15, %if.then8, %if.then
  %15 = load i1, ptr %retval, align 1
  ret i1 %15
}