; Function Attrs: mustprogress uwtable
define noundef zeroext i1 @_ZNK8QuantLib15VegaBumpCluster12isCompatibleERKN5boost10shared_ptrINS_11MarketModelEEE(ptr nocapture noundef nonnull readonly align 8 dereferenceable(48) %this, ptr nocapture noundef nonnull readonly align 8 dereferenceable(16) %volStructure) local_unnamed_addr #3 align 2 {
entry:
  %rateEnd_ = getelementptr inbounds nuw i8, ptr %this, i64 24
  %0 = load i64, ptr %rateEnd_, align 8, !tbaa !10
  %1 = load ptr, ptr %volStructure, align 8, !tbaa !25
  %cmp.not.i = icmp eq ptr %1, null
  br i1 %cmp.not.i, label %cond.false.i, label %_ZNK5boost10shared_ptrIN8QuantLib11MarketModelEEptEv.exit, !prof !27

cond.false.i:                                     ; preds = %entry
  tail call void @_ZN5boost16assertion_failedEPKcS1_S1_l(ptr noundef nonnull @.str.8, ptr noundef nonnull @__PRETTY_FUNCTION__._ZNK5boost10shared_ptrIN8QuantLib11MarketModelEEptEv, ptr noundef nonnull @.str.9, i64 noundef 784)
  %.pre.i = load ptr, ptr %volStructure, align 8, !tbaa !25
  br label %_ZNK5boost10shared_ptrIN8QuantLib11MarketModelEEptEv.exit

_ZNK5boost10shared_ptrIN8QuantLib11MarketModelEEptEv.exit: ; preds = %entry, %cond.false.i
  %2 = phi ptr [ %1, %entry ], [ %.pre.i, %cond.false.i ]
  %vtable = load ptr, ptr %2, align 8, !tbaa !21
  %vfn = getelementptr inbounds i8, ptr %vtable, i64 40
  %3 = load ptr, ptr %vfn, align 8
  %call2 = tail call noundef i64 %3(ptr noundef nonnull align 8 dereferenceable(56) %2)
  %cmp = icmp ugt i64 %0, %call2
  br i1 %cmp, label %return, label %if.end

if.end:                                           ; preds = %_ZNK5boost10shared_ptrIN8QuantLib11MarketModelEEptEv.exit
  %stepEnd_ = getelementptr inbounds nuw i8, ptr %this, i64 40
  %4 = load i64, ptr %stepEnd_, align 8, !tbaa !12
  %5 = load ptr, ptr %volStructure, align 8, !tbaa !25
  %cmp.not.i4 = icmp eq ptr %5, null
  br i1 %cmp.not.i4, label %cond.false.i5, label %_ZNK5boost10shared_ptrIN8QuantLib11MarketModelEEptEv.exit7, !prof !27

cond.false.i5:                                    ; preds = %if.end
  tail call void @_ZN5boost16assertion_failedEPKcS1_S1_l(ptr noundef nonnull @.str.8, ptr noundef nonnull @__PRETTY_FUNCTION__._ZNK5boost10shared_ptrIN8QuantLib11MarketModelEEptEv, ptr noundef nonnull @.str.9, i64 noundef 784)
  %.pre.i6 = load ptr, ptr %volStructure, align 8, !tbaa !25
  br label %_ZNK5boost10shared_ptrIN8QuantLib11MarketModelEEptEv.exit7

_ZNK5boost10shared_ptrIN8QuantLib11MarketModelEEptEv.exit7: ; preds = %if.end, %cond.false.i5
  %6 = phi ptr [ %5, %if.end ], [ %.pre.i6, %cond.false.i5 ]
  %vtable4 = load ptr, ptr %6, align 8, !tbaa !21
  %vfn5 = getelementptr inbounds i8, ptr %vtable4, i64 56
  %7 = load ptr, ptr %vfn5, align 8
  %call6 = tail call noundef i64 %7(ptr noundef nonnull align 8 dereferenceable(56) %6)
  %cmp7 = icmp ugt i64 %4, %call6
  br i1 %cmp7, label %return, label %if.end9

if.end9:                                          ; preds = %_ZNK5boost10shared_ptrIN8QuantLib11MarketModelEEptEv.exit7
  %factorEnd_ = getelementptr inbounds nuw i8, ptr %this, i64 8
  %8 = load i64, ptr %factorEnd_, align 8, !tbaa !8
  %9 = load ptr, ptr %volStructure, align 8, !tbaa !25
  %cmp.not.i8 = icmp eq ptr %9, null
  br i1 %cmp.not.i8, label %cond.false.i9, label %_ZNK5boost10shared_ptrIN8QuantLib11MarketModelEEptEv.exit11, !prof !27

cond.false.i9:                                    ; preds = %if.end9
  tail call void @_ZN5boost16assertion_failedEPKcS1_S1_l(ptr noundef nonnull @.str.8, ptr noundef nonnull @__PRETTY_FUNCTION__._ZNK5boost10shared_ptrIN8QuantLib11MarketModelEEptEv, ptr noundef nonnull @.str.9, i64 noundef 784)
  %.pre.i10 = load ptr, ptr %volStructure, align 8, !tbaa !25
  br label %_ZNK5boost10shared_ptrIN8QuantLib11MarketModelEEptEv.exit11

_ZNK5boost10shared_ptrIN8QuantLib11MarketModelEEptEv.exit11: ; preds = %if.end9, %cond.false.i9
  %10 = phi ptr [ %9, %if.end9 ], [ %.pre.i10, %cond.false.i9 ]
  %vtable11 = load ptr, ptr %10, align 8, !tbaa !21
  %vfn12 = getelementptr inbounds i8, ptr %vtable11, i64 48
  %11 = load ptr, ptr %vfn12, align 8
  %call13 = tail call noundef i64 %11(ptr noundef nonnull align 8 dereferenceable(56) %10)
  %cmp14 = icmp ugt i64 %8, %call13
  br i1 %cmp14, label %return, label %if.end16

if.end16:                                         ; preds = %_ZNK5boost10shared_ptrIN8QuantLib11MarketModelEEptEv.exit11
  %12 = load ptr, ptr %volStructure, align 8, !tbaa !25
  %cmp.not.i12 = icmp eq ptr %12, null
  br i1 %cmp.not.i12, label %cond.false.i13, label %_ZNK5boost10shared_ptrIN8QuantLib11MarketModelEEptEv.exit15, !prof !27

cond.false.i13:                                   ; preds = %if.end16
  tail call void @_ZN5boost16assertion_failedEPKcS1_S1_l(ptr noundef nonnull @.str.8, ptr noundef nonnull @__PRETTY_FUNCTION__._ZNK5boost10shared_ptrIN8QuantLib11MarketModelEEptEv, ptr noundef nonnull @.str.9, i64 noundef 784)
  %.pre.i14 = load ptr, ptr %volStructure, align 8, !tbaa !25
  br label %_ZNK5boost10shared_ptrIN8QuantLib11MarketModelEEptEv.exit15

_ZNK5boost10shared_ptrIN8QuantLib11MarketModelEEptEv.exit15: ; preds = %if.end16, %cond.false.i13
  %13 = phi ptr [ %12, %if.end16 ], [ %.pre.i14, %cond.false.i13 ]
  %vtable18 = load ptr, ptr %13, align 8, !tbaa !21
  %vfn19 = getelementptr inbounds i8, ptr %vtable18, i64 32
  %14 = load ptr, ptr %vfn19, align 8
  %call20 = tail call noundef nonnull align 8 dereferenceable(128) ptr %14(ptr noundef nonnull align 8 dereferenceable(56) %13)
  %call21 = tail call noundef nonnull align 8 dereferenceable(24) ptr @_ZNK8QuantLib20EvolutionDescription14firstAliveRateEv(ptr noundef nonnull align 8 dereferenceable(128) %call20)
  %15 = load i64, ptr %stepEnd_, align 8, !tbaa !12
  %16 = load ptr, ptr %call21, align 8, !tbaa !28
  %17 = getelementptr i64, ptr %16, i64 %15
  %add.ptr.i = getelementptr i8, ptr %17, i64 -8
  %18 = load i64, ptr %add.ptr.i, align 8, !tbaa !20
  %rateBegin_ = getelementptr inbounds nuw i8, ptr %this, i64 16
  %19 = load i64, ptr %rateBegin_, align 8, !tbaa !9
  %cmp24 = icmp uge i64 %19, %18
  br label %return

return:                                           ; preds = %_ZNK5boost10shared_ptrIN8QuantLib11MarketModelEEptEv.exit11, %_ZNK5boost10shared_ptrIN8QuantLib11MarketModelEEptEv.exit7, %_ZNK5boost10shared_ptrIN8QuantLib11MarketModelEEptEv.exit, %_ZNK5boost10shared_ptrIN8QuantLib11MarketModelEEptEv.exit15
  %retval.0 = phi i1 [ %cmp24, %_ZNK5boost10shared_ptrIN8QuantLib11MarketModelEEptEv.exit15 ], [ false, %_ZNK5boost10shared_ptrIN8QuantLib11MarketModelEEptEv.exit ], [ false, %_ZNK5boost10shared_ptrIN8QuantLib11MarketModelEEptEv.exit7 ], [ false, %_ZNK5boost10shared_ptrIN8QuantLib11MarketModelEEptEv.exit11 ]
  ret i1 %retval.0
}